target datalayout = "e-m:e-p270:32:32-p271:32:32-p272:64:64-i64:64-i128:128-f80:128-n8:16:32:64-S128"
target triple = "x86_64-pc-linux-gnu"

%"class.std::__shared_count" = type { ptr }
%"class.OpenColorIO_v2_5dev::Lut3DOpData" = type { %"class.OpenColorIO_v2_5dev::OpData", i32, %"class.OpenColorIO_v2_5dev::Lut3DOpData::Lut3DArray", i32, i32 }
%"class.OpenColorIO_v2_5dev::OpData" = type { ptr, %"class.std::mutex", %"class.OpenColorIO_v2_5dev::FormatMetadataImpl" }
%"class.std::mutex" = type { %"class.std::__mutex_base" }
%"class.std::__mutex_base" = type { %union.pthread_mutex_t }
%union.pthread_mutex_t = type { %struct.__pthread_mutex_s }
%struct.__pthread_mutex_s = type { i32, i32, i32, i32, i32, i16, i16, %struct.__pthread_internal_list }
%struct.__pthread_internal_list = type { ptr, ptr }
%"class.OpenColorIO_v2_5dev::FormatMetadataImpl" = type { %"class.OpenColorIO_v2_5dev::FormatMetadata", %"class.std::__cxx11::basic_string", %"class.std::__cxx11::basic_string", %"class.std::vector", %"class.std::vector.6" }
%"class.OpenColorIO_v2_5dev::FormatMetadata" = type { ptr }
%"class.std::__cxx11::basic_string" = type { %"struct.std::__cxx11::basic_string<char>::_Alloc_hider", i64, %union.anon }
%"struct.std::__cxx11::basic_string<char>::_Alloc_hider" = type { ptr }
%union.anon = type { i64, [8 x i8] }
%"class.std::vector" = type { %"struct.std::_Vector_base" }
%"struct.std::_Vector_base" = type { %"struct.std::_Vector_base<std::pair<std::__cxx11::basic_string<char>, std::__cxx11::basic_string<char>>, std::allocator<std::pair<std::__cxx11::basic_string<char>, std::__cxx11::basic_string<char>>>>::_Vector_impl" }
%"struct.std::_Vector_base<std::pair<std::__cxx11::basic_string<char>, std::__cxx11::basic_string<char>>, std::allocator<std::pair<std::__cxx11::basic_string<char>, std::__cxx11::basic_string<char>>>>::_Vector_impl" = type { %"struct.std::_Vector_base<std::pair<std::__cxx11::basic_string<char>, std::__cxx11::basic_string<char>>, std::allocator<std::pair<std::__cxx11::basic_string<char>, std::__cxx11::basic_string<char>>>>::_Vector_impl_data" }
%"struct.std::_Vector_base<std::pair<std::__cxx11::basic_string<char>, std::__cxx11::basic_string<char>>, std::allocator<std::pair<std::__cxx11::basic_string<char>, std::__cxx11::basic_string<char>>>>::_Vector_impl_data" = type { ptr, ptr, ptr }
%"class.std::vector.6" = type { %"struct.std::_Vector_base.7" }
%"struct.std::_Vector_base.7" = type { %"struct.std::_Vector_base<OpenColorIO_v2_5dev::FormatMetadataImpl, std::allocator<OpenColorIO_v2_5dev::FormatMetadataImpl>>::_Vector_impl" }
%"struct.std::_Vector_base<OpenColorIO_v2_5dev::FormatMetadataImpl, std::allocator<OpenColorIO_v2_5dev::FormatMetadataImpl>>::_Vector_impl" = type { %"struct.std::_Vector_base<OpenColorIO_v2_5dev::FormatMetadataImpl, std::allocator<OpenColorIO_v2_5dev::FormatMetadataImpl>>::_Vector_impl_data" }
%"struct.std::_Vector_base<OpenColorIO_v2_5dev::FormatMetadataImpl, std::allocator<OpenColorIO_v2_5dev::FormatMetadataImpl>>::_Vector_impl_data" = type { ptr, ptr, ptr }
%"class.OpenColorIO_v2_5dev::Lut3DOpData::Lut3DArray" = type { %"class.OpenColorIO_v2_5dev::ArrayT" }
%"class.OpenColorIO_v2_5dev::ArrayT" = type { %"class.OpenColorIO_v2_5dev::ArrayBase", i64, i64, %"class.std::vector.11" }
%"class.OpenColorIO_v2_5dev::ArrayBase" = type { ptr }
%"class.std::vector.11" = type { %"struct.std::_Vector_base.12" }
%"struct.std::_Vector_base.12" = type { %"struct.std::_Vector_base<float, std::allocator<float>>::_Vector_impl" }
%"struct.std::_Vector_base<float, std::allocator<float>>::_Vector_impl" = type { %"struct.std::_Vector_base<float, std::allocator<float>>::_Vector_impl_data" }
%"struct.std::_Vector_base<float, std::allocator<float>>::_Vector_impl_data" = type { ptr, ptr, ptr }
%"class.OpenColorIO_v2_5dev::(anonymous namespace)::BaseLut3DRenderer" = type { %"class.OpenColorIO_v2_5dev::OpCPU", ptr, i64, float, i32, ptr }
%"class.OpenColorIO_v2_5dev::OpCPU" = type { ptr }
%"class.std::__shared_ptr.1" = type { ptr, %"class.std::__shared_count" }

@_ZTVN19OpenColorIO_v2_5dev5OpCPUE = external unnamed_addr constant { [8 x ptr] }, align 8

; Function Attrs: mustprogress nounwind uwtable
define linkonce_odr hidden noundef ptr @_ZNKSt12__shared_ptrIKN19OpenColorIO_v2_5dev11Lut3DOpDataELN9__gnu_cxx12_Lock_policyE2EE3getEv(ptr noundef nonnull align 8 dereferenceable(16) %0) #5 comdat align 2 {
  %2 = alloca ptr, align 8
  store ptr %0, ptr %2, align 8, !tbaa !170
  %3 = load ptr, ptr %2, align 8
  %4 = getelementptr inbounds nuw %"class.std::__shared_ptr.1", ptr %3, i32 0, i32 0
  %5 = load ptr, ptr %4, align 8, !tbaa !172
  ret ptr %5
}

; Function Attrs: mustprogress nounwind uwtable
define linkonce_odr hidden noundef nonnull align 4 dereferenceable(4) ptr @_ZNKSt6vectorIfSaIfEEixEm(ptr noundef nonnull align 8 dereferenceable(24) %0, i64 noundef %1) #5 comdat align 2 {
  %3 = alloca ptr, align 8
  %4 = alloca i64, align 8
  store ptr %0, ptr %3, align 8, !tbaa !125
  store i64 %1, ptr %4, align 8, !tbaa !91
  %5 = load ptr, ptr %3, align 8
  %6 = getelementptr inbounds nuw %"struct.std::_Vector_base.12", ptr %5, i32 0, i32 0
  %7 = getelementptr inbounds nuw %"struct.std::_Vector_base<float, std::allocator<float>>::_Vector_impl_data", ptr %6, i32 0, i32 0
  %8 = load ptr, ptr %7, align 8, !tbaa !130
  %9 = load i64, ptr %4, align 8, !tbaa !91
  %10 = getelementptr inbounds nuw float, ptr %8, i64 %9
  ret ptr %10
}

; Function Attrs: mustprogress nounwind uwtable
define linkonce_odr hidden noundef ptr @_ZNKSt19__shared_ptr_accessIKN19OpenColorIO_v2_5dev11Lut3DOpDataELN9__gnu_cxx12_Lock_policyE2ELb0ELb0EE6_M_getEv(ptr noundef nonnull align 1 dereferenceable(1) %0) #5 comdat align 2 {
  %2 = alloca ptr, align 8
  store ptr %0, ptr %2, align 8, !tbaa !8
  %3 = load ptr, ptr %2, align 8
  %4 = call noundef ptr @_ZNKSt12__shared_ptrIKN19OpenColorIO_v2_5dev11Lut3DOpDataELN9__gnu_cxx12_Lock_policyE2EE3getEv(ptr noundef nonnull align 8 dereferenceable(16) %3) #3
  ret ptr %4
}

; Function Attrs: mustprogress uwtable
define internal noundef ptr @_ZNK19OpenColorIO_v2_5dev12_GLOBAL__N_117BaseLut3DRenderer12createOptLutERKSt6vectorIfSaIfEE(ptr noundef nonnull align 8 dereferenceable(40) %0, ptr noundef nonnull align 8 dereferenceable(24) %1) #4 align 2 {
  %3 = alloca ptr, align 8
  %4 = alloca ptr, align 8
  %5 = alloca i64, align 8
  %6 = alloca ptr, align 8
  %7 = alloca ptr, align 8
  %8 = alloca i64, align 8
  store ptr %0, ptr %3, align 8, !tbaa !108
  store ptr %1, ptr %4, align 8, !tbaa !125
  %9 = load ptr, ptr %3, align 8
  call void @llvm.lifetime.start.p0(i64 8, ptr %5) #3
  %10 = getelementptr inbounds nuw %"class.OpenColorIO_v2_5dev::(anonymous namespace)::BaseLut3DRenderer", ptr %9, i32 0, i32 2
  %11 = load i64, ptr %10, align 8, !tbaa !111
  %12 = getelementptr inbounds nuw %"class.OpenColorIO_v2_5dev::(anonymous namespace)::BaseLut3DRenderer", ptr %9, i32 0, i32 2
  %13 = load i64, ptr %12, align 8, !tbaa !111
  %14 = mul i64 %11, %13
  %15 = getelementptr inbounds nuw %"class.OpenColorIO_v2_5dev::(anonymous namespace)::BaseLut3DRenderer", ptr %9, i32 0, i32 2
  %16 = load i64, ptr %15, align 8, !tbaa !111
  %17 = mul i64 %14, %16
  store i64 %17, ptr %5, align 8, !tbaa !91
  call void @llvm.lifetime.start.p0(i64 8, ptr %6) #3
  %18 = load i64, ptr %5, align 8, !tbaa !91
  %19 = getelementptr inbounds nuw %"class.OpenColorIO_v2_5dev::(anonymous namespace)::BaseLut3DRenderer", ptr %9, i32 0, i32 4
  %20 = load i32, ptr %19, align 4, !tbaa !113
  %21 = sext i32 %20 to i64
  %22 = mul nsw i64 %18, %21
  %23 = mul i64 %22, 4
  %24 = call noundef ptr @_ZN19OpenColorIO_v2_5dev8Platform13AlignedMallocEmm(i64 noundef %23, i64 noundef 16)
  store ptr %24, ptr %6, align 8, !tbaa !118
  call void @llvm.lifetime.start.p0(i64 8, ptr %7) #3
  %25 = load ptr, ptr %6, align 8, !tbaa !118
  store ptr %25, ptr %7, align 8, !tbaa !118
  call void @llvm.lifetime.start.p0(i64 8, ptr %8) #3
  store i64 0, ptr %8, align 8, !tbaa !91
  br label %26

26:                                               ; preds = %62, %2
  %27 = load i64, ptr %8, align 8, !tbaa !91
  %28 = load i64, ptr %5, align 8, !tbaa !91
  %29 = icmp slt i64 %27, %28
  br i1 %29, label %31, label %30

30:                                               ; preds = %26
  call void @llvm.lifetime.end.p0(i64 8, ptr %8) #3
  br label %65

31:                                               ; preds = %26
  %32 = load ptr, ptr %4, align 8, !tbaa !125
  %33 = load i64, ptr %8, align 8, !tbaa !91
  %34 = mul nsw i64 %33, 3
  %35 = call noundef nonnull align 4 dereferenceable(4) ptr @_ZNKSt6vectorIfSaIfEEixEm(ptr noundef nonnull align 8 dereferenceable(24) %32, i64 noundef %34) #3
  %36 = load float, ptr %35, align 4, !tbaa !119
  %37 = call noundef float @_ZN19OpenColorIO_v2_5dev13SanitizeFloatEf(float noundef %36)
  %38 = load ptr, ptr %7, align 8, !tbaa !118
  %39 = getelementptr inbounds float, ptr %38, i64 0
  store float %37, ptr %39, align 4, !tbaa !119
  %40 = load ptr, ptr %4, align 8, !tbaa !125
  %41 = load i64, ptr %8, align 8, !tbaa !91
  %42 = mul nsw i64 %41, 3
  %43 = add nsw i64 %42, 1
  %44 = call noundef nonnull align 4 dereferenceable(4) ptr @_ZNKSt6vectorIfSaIfEEixEm(ptr noundef nonnull align 8 dereferenceable(24) %40, i64 noundef %43) #3
  %45 = load float, ptr %44, align 4, !tbaa !119
  %46 = call noundef float @_ZN19OpenColorIO_v2_5dev13SanitizeFloatEf(float noundef %45)
  %47 = load ptr, ptr %7, align 8, !tbaa !118
  %48 = getelementptr inbounds float, ptr %47, i64 1
  store float %46, ptr %48, align 4, !tbaa !119
  %49 = load ptr, ptr %4, align 8, !tbaa !125
  %50 = load i64, ptr %8, align 8, !tbaa !91
  %51 = mul nsw i64 %50, 3
  %52 = add nsw i64 %51, 2
  %53 = call noundef nonnull align 4 dereferenceable(4) ptr @_ZNKSt6vectorIfSaIfEEixEm(ptr noundef nonnull align 8 dereferenceable(24) %49, i64 noundef %52) #3
  %54 = load float, ptr %53, align 4, !tbaa !119
  %55 = call noundef float @_ZN19OpenColorIO_v2_5dev13SanitizeFloatEf(float noundef %54)
  %56 = load ptr, ptr %7, align 8, !tbaa !118
  %57 = getelementptr inbounds float, ptr %56, i64 2
  store float %55, ptr %57, align 4, !tbaa !119
  %58 = load ptr, ptr %7, align 8, !tbaa !118
  %59 = getelementptr inbounds float, ptr %58, i64 3
  store float 0.000000e+00, ptr %59, align 4, !tbaa !119
  %60 = load ptr, ptr %7, align 8, !tbaa !118
  %61 = getelementptr inbounds float, ptr %60, i64 4
  store ptr %61, ptr %7, align 8, !tbaa !118
  br label %62

62:                                               ; preds = %31
  %63 = load i64, ptr %8, align 8, !tbaa !91
  %64 = add nsw i64 %63, 1
  store i64 %64, ptr %8, align 8, !tbaa !91
  br label %26, !llvm.loop !127

65:                                               ; preds = %30
  %66 = load ptr, ptr %6, align 8, !tbaa !118
  call void @llvm.lifetime.end.p0(i64 8, ptr %7) #3
  call void @llvm.lifetime.end.p0(i64 8, ptr %6) #3
  call void @llvm.lifetime.end.p0(i64 8, ptr %5) #3
  ret ptr %66
}

; Function Attrs: inlinehint mustprogress nounwind uwtable
define linkonce_odr hidden noundef nonnull align 8 dereferenceable(24) ptr @_ZNK19OpenColorIO_v2_5dev6ArrayTIfE9getValuesEv(ptr noundef nonnull align 8 dereferenceable(48) %0) #15 comdat align 2 {
  %2 = alloca ptr, align 8
  store ptr %0, ptr %2, align 8, !tbaa !128
  %3 = load ptr, ptr %2, align 8
  %4 = getelementptr inbounds nuw %"class.OpenColorIO_v2_5dev::ArrayT", ptr %3, i32 0, i32 3
  ret ptr %4
}

; Function Attrs: inlinehint mustprogress nounwind uwtable
define linkonce_odr hidden noundef nonnull align 8 dereferenceable(48) ptr @_ZNK19OpenColorIO_v2_5dev11Lut3DOpData8getArrayEv(ptr noundef nonnull align 8 dereferenceable(232) %0) #15 comdat align 2 {
  %2 = alloca ptr, align 8
  store ptr %0, ptr %2, align 8, !tbaa !10
  %3 = load ptr, ptr %2, align 8
  %4 = getelementptr inbounds nuw %"class.OpenColorIO_v2_5dev::Lut3DOpData", ptr %3, i32 0, i32 2
  ret ptr %4
}

; Function Attrs: mustprogress nounwind uwtable
define linkonce_odr hidden noundef ptr @_ZNKSt19__shared_ptr_accessIKN19OpenColorIO_v2_5dev11Lut3DOpDataELN9__gnu_cxx12_Lock_policyE2ELb0ELb0EEptEv(ptr noundef nonnull align 1 dereferenceable(1) %0) #5 comdat align 2 {
  %2 = alloca ptr, align 8
  store ptr %0, ptr %2, align 8, !tbaa !8
  %3 = load ptr, ptr %2, align 8
  %4 = call noundef ptr @_ZNKSt19__shared_ptr_accessIKN19OpenColorIO_v2_5dev11Lut3DOpDataELN9__gnu_cxx12_Lock_policyE2ELb0ELb0EE6_M_getEv(ptr noundef nonnull align 1 dereferenceable(1) %3) #3
  ret ptr %4
}

; Function Attrs: mustprogress nounwind uwtable
define linkonce_odr hidden void @_ZN19OpenColorIO_v2_5dev5OpCPUD2Ev(ptr noundef nonnull align 8 dereferenceable(8) %0) unnamed_addr #5 comdat align 2 {
  %2 = alloca ptr, align 8
  store ptr %0, ptr %2, align 8, !tbaa !123
  ret void
}

; Function Attrs: mustprogress uwtable
define internal void @_ZN19OpenColorIO_v2_5dev12_GLOBAL__N_117BaseLut3DRenderer10updateDataERSt10shared_ptrIKNS_11Lut3DOpDataEE(ptr noundef nonnull align 8 dereferenceable(40) %0, ptr noundef nonnull align 8 dereferenceable(16) %1) #4 align 2 {
  %3 = alloca ptr, align 8
  %4 = alloca ptr, align 8
  store ptr %0, ptr %3, align 8, !tbaa !108
  store ptr %1, ptr %4, align 8, !tbaa !3
  %5 = load ptr, ptr %3, align 8
  %6 = load ptr, ptr %4, align 8, !tbaa !3
  %7 = call noundef ptr @_ZNKSt19__shared_ptr_accessIKN19OpenColorIO_v2_5dev11Lut3DOpDataELN9__gnu_cxx12_Lock_policyE2ELb0ELb0EEptEv(ptr noundef nonnull align 1 dereferenceable(1) %6) #3
  %8 = call noundef nonnull align 8 dereferenceable(48) ptr @_ZNK19OpenColorIO_v2_5dev11Lut3DOpData8getArrayEv(ptr noundef nonnull align 8 dereferenceable(232) %7)
  %9 = load ptr, ptr %8, align 8, !tbaa !84
  %10 = getelementptr inbounds ptr, ptr %9, i64 4
  %11 = load ptr, ptr %10, align 8
  %12 = call noundef i64 %11(ptr noundef nonnull align 8 dereferenceable(48) %8)
  %13 = getelementptr inbounds nuw %"class.OpenColorIO_v2_5dev::(anonymous namespace)::BaseLut3DRenderer", ptr %5, i32 0, i32 2
  store i64 %12, ptr %13, align 8, !tbaa !111
  %14 = getelementptr inbounds nuw %"class.OpenColorIO_v2_5dev::(anonymous namespace)::BaseLut3DRenderer", ptr %5, i32 0, i32 2
  %15 = load i64, ptr %14, align 8, !tbaa !111
  %16 = uitofp i64 %15 to float
  %17 = fsub float %16, 1.000000e+00
  %18 = getelementptr inbounds nuw %"class.OpenColorIO_v2_5dev::(anonymous namespace)::BaseLut3DRenderer", ptr %5, i32 0, i32 3
  store float %17, ptr %18, align 8, !tbaa !112
  %19 = getelementptr inbounds nuw %"class.OpenColorIO_v2_5dev::(anonymous namespace)::BaseLut3DRenderer", ptr %5, i32 0, i32 1
  %20 = load ptr, ptr %19, align 8, !tbaa !110
  call void @_ZN19OpenColorIO_v2_5dev8Platform11AlignedFreeEPv(ptr noundef %20)
  %21 = getelementptr inbounds nuw %"class.OpenColorIO_v2_5dev::(anonymous namespace)::BaseLut3DRenderer", ptr %5, i32 0, i32 4
  store i32 4, ptr %21, align 4, !tbaa !113
  %22 = load ptr, ptr %4, align 8, !tbaa !3
  %23 = call noundef ptr @_ZNKSt19__shared_ptr_accessIKN19OpenColorIO_v2_5dev11Lut3DOpDataELN9__gnu_cxx12_Lock_policyE2ELb0ELb0EEptEv(ptr noundef nonnull align 1 dereferenceable(1) %22) #3
  %24 = call noundef nonnull align 8 dereferenceable(48) ptr @_ZNK19OpenColorIO_v2_5dev11Lut3DOpData8getArrayEv(ptr noundef nonnull align 8 dereferenceable(232) %23)
  %25 = call noundef nonnull align 8 dereferenceable(24) ptr @_ZNK19OpenColorIO_v2_5dev6ArrayTIfE9getValuesEv(ptr noundef nonnull align 8 dereferenceable(48) %24)
  %26 = call noundef ptr @_ZNK19OpenColorIO_v2_5dev12_GLOBAL__N_117BaseLut3DRenderer12createOptLutERKSt6vectorIfSaIfEE(ptr noundef nonnull align 8 dereferenceable(40) %5, ptr noundef nonnull align 8 dereferenceable(24) %25)
  %27 = getelementptr inbounds nuw %"class.OpenColorIO_v2_5dev::(anonymous namespace)::BaseLut3DRenderer", ptr %5, i32 0, i32 1
  store ptr %26, ptr %27, align 8, !tbaa !110
  ret void
}

; Function Attrs: mustprogress nounwind uwtable
define linkonce_odr hidden void @_ZN19OpenColorIO_v2_5dev5OpCPUC2Ev(ptr noundef nonnull align 8 dereferenceable(8) %0) unnamed_addr #5 comdat align 2 {
  %2 = alloca ptr, align 8
  store ptr %0, ptr %2, align 8, !tbaa !123
  %3 = load ptr, ptr %2, align 8
  store ptr getelementptr inbounds inrange(-16, 48) ({ [8 x ptr] }, ptr @_ZTVN19OpenColorIO_v2_5dev5OpCPUE, i32 0, i32 0, i32 2), ptr %3, align 8, !tbaa !84
  ret void
}

; Function Attrs: mustprogress uwtable
define internal void @_ZN19OpenColorIO_v2_5dev12_GLOBAL__N_117BaseLut3DRendererC2ERSt10shared_ptrIKNS_11Lut3DOpDataEE(ptr noundef nonnull align 8 dereferenceable(40) %0, ptr noundef nonnull align 8 dereferenceable(16) %1) unnamed_addr #4 align 2 personality ptr @__gxx_personality_v0 {
  %3 = alloca ptr, align 8
  %4 = alloca ptr, align 8
  %5 = alloca ptr, align 8
  %6 = alloca i32, align 4
  store ptr %0, ptr %3, align 8, !tbaa !108
  store ptr %1, ptr %4, align 8, !tbaa !3
  %7 = load ptr, ptr %3, align 8
  %8 = getelementptr inbounds i8, ptr %7, i64 0
  call void @llvm.memset.p0.i64(ptr align 8 %8, i8 0, i64 8, i1 false)
  call void @_ZN19OpenColorIO_v2_5dev5OpCPUC2Ev(ptr noundef nonnull align 8 dereferenceable(8) %7) #3
  store ptr getelementptr inbounds inrange(-16, 48) ({ [8 x ptr] }, ptr @_ZTVN19OpenColorIO_v2_5dev12_GLOBAL__N_117BaseLut3DRendererE, i32 0, i32 0, i32 2), ptr %7, align 8, !tbaa !84
  %9 = getelementptr inbounds nuw %"class.OpenColorIO_v2_5dev::(anonymous namespace)::BaseLut3DRenderer", ptr %7, i32 0, i32 1
  store ptr null, ptr %9, align 8, !tbaa !110
  %10 = getelementptr inbounds nuw %"class.OpenColorIO_v2_5dev::(anonymous namespace)::BaseLut3DRenderer", ptr %7, i32 0, i32 2
  store i64 0, ptr %10, align 8, !tbaa !111
  %11 = getelementptr inbounds nuw %"class.OpenColorIO_v2_5dev::(anonymous namespace)::BaseLut3DRenderer", ptr %7, i32 0, i32 3
  store float 0.000000e+00, ptr %11, align 8, !tbaa !112
  %12 = getelementptr inbounds nuw %"class.OpenColorIO_v2_5dev::(anonymous namespace)::BaseLut3DRenderer", ptr %7, i32 0, i32 4
  store i32 0, ptr %12, align 4, !tbaa !113
  %13 = getelementptr inbounds nuw %"class.OpenColorIO_v2_5dev::(anonymous namespace)::BaseLut3DRenderer", ptr %7, i32 0, i32 5
  store ptr null, ptr %13, align 8, !tbaa !104
  %14 = load ptr, ptr %4, align 8, !tbaa !3
  invoke void @_ZN19OpenColorIO_v2_5dev12_GLOBAL__N_117BaseLut3DRenderer10updateDataERSt10shared_ptrIKNS_11Lut3DOpDataEE(ptr noundef nonnull align 8 dereferenceable(40) %7, ptr noundef nonnull align 8 dereferenceable(16) %14)
          to label %15 unwind label %16

15:                                               ; preds = %2
  ret void

16:                                               ; preds = %2
  %17 = landingpad { ptr, i32 }
          cleanup
  %18 = extractvalue { ptr, i32 } %17, 0
  store ptr %18, ptr %5, align 8
  %19 = extractvalue { ptr, i32 } %17, 1
  store i32 %19, ptr %6, align 4
  call void @_ZN19OpenColorIO_v2_5dev5OpCPUD2Ev(ptr noundef nonnull align 8 dereferenceable(8) %7) #3
  br label %20

20:                                               ; preds = %16
  %21 = load ptr, ptr %5, align 8
  %22 = load i32, ptr %6, align 4
  %23 = insertvalue { ptr, i32 } poison, ptr %21, 0
  %24 = insertvalue { ptr, i32 } %23, i32 %22, 1
  resume { ptr, i32 } %24
}