; Function Attrs: mustprogress uwtable
define internal fastcc void @_ZN19OpenColorIO_v2_5dev12_GLOBAL__N_117BaseLut3DRendererC2ERSt10shared_ptrIKNS_11Lut3DOpDataEE(ptr noundef nonnull align 8 captures(none) dereferenceable(40) initializes((0, 40)) %0, ptr noundef nonnull readonly align 8 captures(none) dereferenceable(16) %1) unnamed_addr #3 align 2 personality ptr @__gxx_personality_v0 {
.noexc:
  store ptr getelementptr inbounds nuw inrange(-16, 48) (i8, ptr @_ZTVN19OpenColorIO_v2_5dev12_GLOBAL__N_117BaseLut3DRendererE, i64 16), ptr %0, align 8, !tbaa !50
  %2 = getelementptr inbounds nuw i8, ptr %0, i64 8
  %3 = getelementptr inbounds nuw i8, ptr %0, i64 16
  %4 = getelementptr inbounds nuw i8, ptr %0, i64 24
  %5 = getelementptr inbounds nuw i8, ptr %0, i64 28
  tail call void @llvm.memset.p0.i64(ptr noundef nonnull align 8 dereferenceable(32) %2, i8 0, i64 32, i1 false)
  %6 = load ptr, ptr %1, align 8, !tbaa !3
  %7 = getelementptr inbounds nuw i8, ptr %6, i64 176
  %8 = load ptr, ptr %7, align 8, !tbaa !50
  %9 = getelementptr inbounds nuw i8, ptr %8, i64 32
  %10 = load ptr, ptr %9, align 8
  %11 = tail call noundef i64 %10(ptr noundef nonnull align 8 dereferenceable(48) %7)
  store i64 %11, ptr %3, align 8, !tbaa !95
  %12 = uitofp i64 %11 to float
  %13 = fadd float %12, -1.000000e+00
  store float %13, ptr %4, align 8, !tbaa !96
  %14 = load ptr, ptr %2, align 8, !tbaa !97
  tail call void @_ZN19OpenColorIO_v2_5dev8Platform11AlignedFreeEPv(ptr noundef %14)
  store i32 4, ptr %5, align 4, !tbaa !98
  %15 = load ptr, ptr %1, align 8, !tbaa !3
  %16 = getelementptr inbounds nuw i8, ptr %15, i64 200
  %.val.i = load i64, ptr %3, align 8, !tbaa !95
  %17 = mul i64 %.val.i, %.val.i
  %18 = mul i64 %17, %.val.i
  %19 = shl i64 %18, 4
  %20 = tail call noundef ptr @_ZN19OpenColorIO_v2_5dev8Platform13AlignedMallocEmm(i64 noundef %19, i64 noundef 16)
  %21 = icmp sgt i64 %18, 0
  br i1 %21, label %.lr.ph.i.i, label %.loopexit

.lr.ph.i.i:                                       ; preds = %.noexc, %.lr.ph.i.i
  %.02.i.i = phi i64 [ %41, %.lr.ph.i.i ], [ 0, %.noexc ]
  %.0171.i.i = phi ptr [ %40, %.lr.ph.i.i ], [ %20, %.noexc ]
  %22 = mul nuw nsw i64 %.02.i.i, 3
  %23 = load ptr, ptr %16, align 8, !tbaa !86
  %24 = getelementptr inbounds nuw float, ptr %23, i64 %22
  %25 = load float, ptr %24, align 4, !tbaa !99
  %26 = tail call noundef float @_ZN19OpenColorIO_v2_5dev13SanitizeFloatEf(float noundef %25)
  store float %26, ptr %.0171.i.i, align 4, !tbaa !99
  %27 = load ptr, ptr %16, align 8, !tbaa !86
  %28 = getelementptr inbounds nuw float, ptr %27, i64 %22
  %29 = getelementptr inbounds nuw i8, ptr %28, i64 4
  %30 = load float, ptr %29, align 4, !tbaa !99
  %31 = tail call noundef float @_ZN19OpenColorIO_v2_5dev13SanitizeFloatEf(float noundef %30)
  %32 = getelementptr inbounds nuw i8, ptr %.0171.i.i, i64 4
  store float %31, ptr %32, align 4, !tbaa !99
  %33 = load ptr, ptr %16, align 8, !tbaa !86
  %34 = getelementptr inbounds nuw float, ptr %33, i64 %22
  %35 = getelementptr inbounds nuw i8, ptr %34, i64 8
  %36 = load float, ptr %35, align 4, !tbaa !99
  %37 = tail call noundef float @_ZN19OpenColorIO_v2_5dev13SanitizeFloatEf(float noundef %36)
  %38 = getelementptr inbounds nuw i8, ptr %.0171.i.i, i64 8
  store float %37, ptr %38, align 4, !tbaa !99
  %39 = getelementptr inbounds nuw i8, ptr %.0171.i.i, i64 12
  store float 0.000000e+00, ptr %39, align 4, !tbaa !99
  %40 = getelementptr inbounds nuw i8, ptr %.0171.i.i, i64 16
  %41 = add nuw nsw i64 %.02.i.i, 1
  %exitcond.not.i.i = icmp eq i64 %41, %18
  br i1 %exitcond.not.i.i, label %.loopexit, label %.lr.ph.i.i, !llvm.loop !100

.loopexit:                                        ; preds = %.lr.ph.i.i, %.noexc
  store ptr %20, ptr %2, align 8, !tbaa !97
  ret void
}